target datalayout = "e-m:e-p270:32:32-p271:32:32-p272:64:64-i64:64-i128:128-f80:128-n8:16:32:64-S128"
target triple = "x86_64-pc-linux-gnu"

%struct.cbb_buffer_st = type { ptr, i64, i64, i8 }
%struct.cbb_st = type { ptr, ptr, i64, i8, i8, i8 }

; Function Attrs: nounwind uwtable
define hidden void @CBB_cleanup(ptr noundef %0) #0 {
  %2 = alloca ptr, align 8
  store ptr %0, ptr %2, align 8, !tbaa !6
  %3 = load ptr, ptr %2, align 8, !tbaa !6
  %4 = getelementptr inbounds nuw %struct.cbb_st, ptr %3, i32 0, i32 0
  %5 = load ptr, ptr %4, align 8, !tbaa !22
  %6 = icmp ne ptr %5, null
  br i1 %6, label %7, label %24

7:                                                ; preds = %1
  %8 = load ptr, ptr %2, align 8, !tbaa !6
  %9 = getelementptr inbounds nuw %struct.cbb_st, ptr %8, i32 0, i32 0
  %10 = load ptr, ptr %9, align 8, !tbaa !22
  %11 = getelementptr inbounds nuw %struct.cbb_buffer_st, ptr %10, i32 0, i32 3
  %12 = load i8, ptr %11, align 8, !tbaa !21
  %13 = icmp ne i8 %12, 0
  br i1 %13, label %14, label %20

14:                                               ; preds = %7
  %15 = load ptr, ptr %2, align 8, !tbaa !6
  %16 = getelementptr inbounds nuw %struct.cbb_st, ptr %15, i32 0, i32 0
  %17 = load ptr, ptr %16, align 8, !tbaa !22
  %18 = getelementptr inbounds nuw %struct.cbb_buffer_st, ptr %17, i32 0, i32 0
  %19 = load ptr, ptr %18, align 8, !tbaa !17
  call void @free(ptr noundef %19) #7
  br label %20

20:                                               ; preds = %14, %7
  %21 = load ptr, ptr %2, align 8, !tbaa !6
  %22 = getelementptr inbounds nuw %struct.cbb_st, ptr %21, i32 0, i32 0
  %23 = load ptr, ptr %22, align 8, !tbaa !22
  call void @free(ptr noundef %23) #7
  br label %24

24:                                               ; preds = %20, %1
  %25 = load ptr, ptr %2, align 8, !tbaa !6
  %26 = getelementptr inbounds nuw %struct.cbb_st, ptr %25, i32 0, i32 0
  store ptr null, ptr %26, align 8, !tbaa !22
  ret void
}