; Function Attrs: mustprogress nounwind willreturn uwtable
define hidden void @CBB_cleanup(ptr noundef captures(none) %0) local_unnamed_addr #7 {
  %2 = load ptr, ptr %0, align 8, !tbaa !16
  %.not = icmp eq ptr %2, null
  br i1 %.not, label %10, label %3

3:                                                ; preds = %1
  %4 = getelementptr inbounds nuw i8, ptr %2, i64 24
  %5 = load i8, ptr %4, align 8, !tbaa !15
  %.not5 = icmp eq i8 %5, 0
  br i1 %.not5, label %8, label %6

6:                                                ; preds = %3
  %7 = load ptr, ptr %2, align 8, !tbaa !6
  tail call void @free(ptr noundef %7) #15
  %.pre = load ptr, ptr %0, align 8, !tbaa !16
  br label %8

8:                                                ; preds = %6, %3
  %9 = phi ptr [ %.pre, %6 ], [ %2, %3 ]
  tail call void @free(ptr noundef %9) #15
  br label %10

10:                                               ; preds = %8, %1
  store ptr null, ptr %0, align 8, !tbaa !16
  ret void
}